; Function Attrs: mustprogress nofree norecurse nounwind sspstrong willreturn memory(readwrite, inaccessiblemem: none) uwtable
define dso_local zeroext i1 @qemu_clock_has_timers(i32 noundef %type) local_unnamed_addr #6 {
entry:
  %idxprom = zext i32 %type to i64
  %arrayidx = getelementptr [4 x ptr], ptr @main_loop_tlg, i64 0, i64 %idxprom
  %0 = load ptr, ptr %arrayidx, align 8
  %active_timers.i = getelementptr inbounds nuw i8, ptr %0, i64 56
  %1 = load atomic i64, ptr %active_timers.i monotonic, align 8
  %tobool.i = icmp ne i64 %1, 0
  ret i1 %tobool.i
}